target datalayout = "e-m:e-p270:32:32-p271:32:32-p272:64:64-i64:64-i128:128-f80:128-n8:16:32:64-S128"
target triple = "x86_64-pc-linux-gnu"

%class.QPointer = type { %class.QWeakPointer }
%class.QWeakPointer = type { ptr, ptr }
%class.QString = type { %struct.QArrayDataPointer }
%struct.QArrayDataPointer = type { ptr, ptr, i64 }
%class.QSharedPointer = type { ptr, ptr }
%class.IOGraphDialog = type { %class.WiresharkDialog.base, ptr, ptr, %class.QPointer, ptr, %class.QList.5, %class.QString, ptr, ptr, i32, %struct.nstime_t, i8, ptr, %class.QPoint, %class.QMenu, ptr, i8, i8, i8, i8, i32, %class.QSharedPointer, %class.QSharedPointer.9 }
%class.WiresharkDialog.base = type <{ %class.GeometryStateDialog, ptr, i8, [7 x i8], %class.QString, %class.QList.1, i32, i8 }>
%class.GeometryStateDialog = type { %class.QDialog, %class.QString, ptr }
%class.QDialog = type { %class.QWidget }
%class.QWidget = type { %class.QObject, %class.QPaintDevice.base, ptr }
%class.QObject = type { ptr, %class.QScopedPointer }
%class.QScopedPointer = type { ptr }
%class.QPaintDevice.base = type <{ ptr, i16 }>
%class.QList.1 = type { %struct.QArrayDataPointer.4 }
%struct.QArrayDataPointer.4 = type { ptr, ptr, i64 }
%class.QList.5 = type { %struct.QArrayDataPointer.8 }
%struct.QArrayDataPointer.8 = type { ptr, ptr, i64 }
%struct.nstime_t = type { i64, i32 }
%class.QPoint = type { i32, i32 }
%class.QMenu = type { %class.QWidget }
%class.QSharedPointer.9 = type { ptr, ptr }
%class.Ui_IOGraphDialog = type { ptr, ptr, ptr, ptr, ptr, ptr, ptr, ptr, ptr, ptr, ptr, ptr, ptr, ptr, ptr, ptr, ptr, ptr, ptr, ptr, ptr, ptr, ptr, ptr, ptr, ptr, ptr, ptr, ptr, ptr, ptr, ptr, ptr, ptr, ptr, ptr, ptr, ptr, ptr, ptr, ptr, ptr, ptr, ptr, ptr, ptr }
%class.QBrush = type { %"class.std::unique_ptr" }
%"class.std::unique_ptr" = type { %"struct.std::__uniq_ptr_data" }
%"struct.std::__uniq_ptr_data" = type { %"class.std::__uniq_ptr_impl" }
%"class.std::__uniq_ptr_impl" = type { %"class.std::tuple" }
%"class.std::tuple" = type { %"struct.std::_Tuple_impl" }
%"struct.std::_Tuple_impl" = type { %"struct.std::_Head_base.28" }
%"struct.std::_Head_base.28" = type { ptr }
%class.QPointer.34 = type { %class.QWeakPointer }
%class.QColor = type <{ i32, %"union.QColor::CT", [2 x i8] }>
%"union.QColor::CT" = type { %struct.anon }
%struct.anon = type { i16, i16, i16, i16, i16 }
%class.QPen = type { ptr }
%class.QCPItemTracer = type <{ %class.QCPAbstractItem.base, [6 x i8], ptr, %class.QPen, %class.QPen, %class.QBrush, %class.QBrush, double, i32, [4 x i8], ptr, double, i8, [7 x i8] }>
%class.QCPAbstractItem.base = type <{ %class.QCPLayerable.base, i8, [6 x i8], %class.QPointer.54, %class.QList.55, %class.QList.59, i8, i8 }>
%class.QCPLayerable.base = type <{ %class.QObject, i8, [7 x i8], ptr, %class.QPointer.34, ptr, i8 }>
%class.QPointer.54 = type { %class.QWeakPointer }
%class.QList.55 = type { %struct.QArrayDataPointer.58 }
%struct.QArrayDataPointer.58 = type { ptr, ptr, i64 }
%class.QList.59 = type { %struct.QArrayDataPointer.62 }
%struct.QArrayDataPointer.62 = type { ptr, ptr, i64 }
%class.QCPLayerable = type <{ %class.QObject, i8, [7 x i8], ptr, %class.QPointer.34, ptr, i8, [7 x i8] }>
%class.QCPAbstractPlottable = type { %class.QCPLayerable.base, %class.QString, i8, i8, %class.QPen, %class.QBrush, %class.QPointer.97, %class.QPointer.97, i32, %class.QCPDataSelection, ptr }
%class.QPointer.97 = type { %class.QWeakPointer }
%class.QCPDataSelection = type { %class.QList.98 }
%class.QList.98 = type { %struct.QArrayDataPointer.101 }
%struct.QArrayDataPointer.101 = type { ptr, ptr, i64 }

; Function Attrs: mustprogress nounwind null_pointer_is_valid sspstrong uwtable
define linkonce_odr noundef i32 @_ZNK13QCPItemTracer5styleEv(ptr noundef align 8 dereferenceable_or_null(209) %0) #7 comdat align 2 {
  %2 = alloca ptr, align 8
  store ptr %0, ptr %2, align 8
  %3 = load ptr, ptr %2, align 8
  %4 = getelementptr inbounds nuw %class.QCPItemTracer, ptr %3, i32 0, i32 8
  %5 = load i32, ptr %4, align 8
  ret i32 %5
}

; Function Attrs: mustprogress nounwind null_pointer_is_valid sspstrong uwtable
define linkonce_odr void @_ZNK13QCPItemTracer3penEv(ptr dead_on_unwind noalias writable sret(%class.QPen) align 8 %0, ptr noundef align 8 dereferenceable_or_null(209) %1) #7 comdat align 2 {
  %3 = alloca ptr, align 8
  %4 = alloca ptr, align 8
  store ptr %0, ptr %3, align 8
  store ptr %1, ptr %4, align 8
  %5 = load ptr, ptr %4, align 8
  %6 = getelementptr inbounds nuw %class.QCPItemTracer, ptr %5, i32 0, i32 3
  call void @_ZN4QPenC1ERKS_(ptr noundef align 8 dereferenceable_or_null(8) %0, ptr noundef align 8 dereferenceable(8) %6) #2
  ret void
}

; Function Attrs: mustprogress nounwind null_pointer_is_valid sspstrong uwtable
define linkonce_odr void @_ZNK20QCPAbstractPlottable3penEv(ptr dead_on_unwind noalias writable sret(%class.QPen) align 8 %0, ptr noundef align 8 dereferenceable_or_null(184) %1) #7 comdat align 2 {
  %3 = alloca ptr, align 8
  %4 = alloca ptr, align 8
  store ptr %0, ptr %3, align 8
  store ptr %1, ptr %4, align 8
  %5 = load ptr, ptr %4, align 8
  %6 = getelementptr inbounds nuw %class.QCPAbstractPlottable, ptr %5, i32 0, i32 4
  call void @_ZN4QPenC1ERKS_(ptr noundef align 8 dereferenceable_or_null(8) %0, ptr noundef align 8 dereferenceable(8) %6) #2
  ret void
}

; Function Attrs: mustprogress nounwind null_pointer_is_valid sspstrong uwtable
define linkonce_odr noundef zeroext i1 @_ZNK12QCPLayerable7visibleEv(ptr noundef align 8 dereferenceable_or_null(57) %0) #7 comdat align 2 {
  %2 = alloca ptr, align 8
  store ptr %0, ptr %2, align 8
  %3 = load ptr, ptr %2, align 8
  %4 = getelementptr inbounds nuw %class.QCPLayerable, ptr %3, i32 0, i32 1
  %5 = load i8, ptr %4, align 8, !range !6, !noundef !7
  %6 = trunc i8 %5 to i1
  ret i1 %6
}

; Function Attrs: mustprogress null_pointer_is_valid sspstrong uwtable
define void @_ZN13IOGraphDialog17toggleTracerStyleEb(ptr noundef align 8 dereferenceable_or_null(384) %0, i1 noundef zeroext %1) #3 align 2 personality ptr @__gxx_personality_v0 {
  %3 = alloca ptr, align 8
  %4 = alloca i8, align 1
  %5 = alloca %class.QPen, align 8
  %6 = alloca i32, align 4
  %7 = alloca %class.QPen, align 8
  %8 = alloca ptr, align 8
  %9 = alloca i32, align 4
  %10 = alloca %class.QColor, align 4
  %11 = alloca { i64, i64 }, align 8
  store ptr %0, ptr %3, align 8
  %12 = zext i1 %1 to i8
  store i8 %12, ptr %4, align 1
  %13 = load ptr, ptr %3, align 8
  %14 = getelementptr inbounds nuw %class.IOGraphDialog, ptr %13, i32 0, i32 8
  %15 = load ptr, ptr %14, align 8
  %16 = call noundef zeroext i1 @_ZNK12QCPLayerable7visibleEv(ptr noundef align 8 dereferenceable_or_null(57) %15)
  br i1 %16, label %21, label %17

17:                                               ; preds = %2
  %18 = load i8, ptr %4, align 1, !range !6, !noundef !7
  %19 = trunc i8 %18 to i1
  br i1 %19, label %21, label %20

20:                                               ; preds = %17
  br label %76

21:                                               ; preds = %17, %2
  %22 = getelementptr inbounds nuw %class.IOGraphDialog, ptr %13, i32 0, i32 1
  %23 = load ptr, ptr %22, align 8
  %24 = getelementptr inbounds nuw %class.Ui_IOGraphDialog, ptr %23, i32 0, i32 26
  %25 = load ptr, ptr %24, align 8
  %26 = call noundef ptr @_ZNK11QCustomPlot5graphEi(ptr noundef align 8 dereferenceable_or_null(513) %25, i32 noundef 0)
  %27 = icmp ne ptr %26, null
  br i1 %27, label %29, label %28

28:                                               ; preds = %21
  br label %76

29:                                               ; preds = %21
  call void @llvm.lifetime.start.p0(i64 8, ptr %5) #2
  %30 = getelementptr inbounds nuw %class.IOGraphDialog, ptr %13, i32 0, i32 1
  %31 = load ptr, ptr %30, align 8
  %32 = getelementptr inbounds nuw %class.Ui_IOGraphDialog, ptr %31, i32 0, i32 26
  %33 = load ptr, ptr %32, align 8
  %34 = call noundef ptr @_ZNK11QCustomPlot5graphEi(ptr noundef align 8 dereferenceable_or_null(513) %33, i32 noundef 0)
  call void @_ZNK20QCPAbstractPlottable3penEv(ptr dead_on_unwind writable sret(%class.QPen) align 8 %5, ptr noundef align 8 dereferenceable_or_null(184) %34)
  call void @llvm.lifetime.start.p0(i64 4, ptr %6) #2
  store i32 2, ptr %6, align 4
  call void @llvm.lifetime.start.p0(i64 8, ptr %7) #2
  %35 = getelementptr inbounds nuw %class.IOGraphDialog, ptr %13, i32 0, i32 8
  %36 = load ptr, ptr %35, align 8
  invoke void @_ZNK13QCPItemTracer3penEv(ptr dead_on_unwind writable sret(%class.QPen) align 8 %7, ptr noundef align 8 dereferenceable_or_null(209) %36)
          to label %37 unwind label %51

37:                                               ; preds = %29
  call void @llvm.lifetime.start.p0(i64 16, ptr %10) #2
  %38 = invoke { i64, i64 } @_ZNK4QPen5colorEv(ptr noundef align 8 dereferenceable_or_null(8) %5)
          to label %39 unwind label %55

39:                                               ; preds = %37
  store { i64, i64 } %38, ptr %11, align 8
  call void @llvm.memcpy.p0.p0.i64(ptr align 4 %10, ptr align 8 %11, i64 14, i1 false)
  %40 = load i8, ptr %4, align 1, !range !6, !noundef !7
  %41 = trunc i8 %40 to i1
  br i1 %41, label %48, label %42

42:                                               ; preds = %39
  %43 = getelementptr inbounds nuw %class.IOGraphDialog, ptr %13, i32 0, i32 8
  %44 = load ptr, ptr %43, align 8
  %45 = invoke noundef i32 @_ZNK13QCPItemTracer5styleEv(ptr noundef align 8 dereferenceable_or_null(209) %44)
          to label %46 unwind label %55

46:                                               ; preds = %42
  %47 = icmp ne i32 %45, 3
  br i1 %47, label %48, label %59

48:                                               ; preds = %46, %39
  store i32 3, ptr %6, align 4
  invoke void @_ZN6QColor9setAlphaFEf(ptr noundef align 4 dereferenceable_or_null(14) %10, float noundef 1.000000e+00)
          to label %49 unwind label %55

49:                                               ; preds = %48
  invoke void @_ZN4QPen9setWidthFEd(ptr noundef align 8 dereferenceable_or_null(8) %7, double noundef 1.500000e+00)
          to label %50 unwind label %55

50:                                               ; preds = %49
  br label %62

51:                                               ; preds = %29
  %52 = landingpad { ptr, i32 }
          cleanup
  %53 = extractvalue { ptr, i32 } %52, 0
  store ptr %53, ptr %8, align 8
  %54 = extractvalue { ptr, i32 } %52, 1
  store i32 %54, ptr %9, align 4
  br label %77

55:                                               ; preds = %70, %67, %66, %62, %60, %59, %49, %48, %42, %37
  %56 = landingpad { ptr, i32 }
          cleanup
  %57 = extractvalue { ptr, i32 } %56, 0
  store ptr %57, ptr %8, align 8
  %58 = extractvalue { ptr, i32 } %56, 1
  store i32 %58, ptr %9, align 4
  call void @llvm.lifetime.end.p0(i64 16, ptr %10) #2
  call void @_ZN4QPenD1Ev(ptr noundef align 8 dereferenceable_or_null(8) %7) #2
  br label %77

59:                                               ; preds = %46
  invoke void @_ZN6QColor9setAlphaFEf(ptr noundef align 4 dereferenceable_or_null(14) %10, float noundef 5.000000e-01)
          to label %60 unwind label %55

60:                                               ; preds = %59
  invoke void @_ZN4QPen9setWidthFEd(ptr noundef align 8 dereferenceable_or_null(8) %7, double noundef 1.000000e+00)
          to label %61 unwind label %55

61:                                               ; preds = %60
  br label %62

62:                                               ; preds = %61, %50
  %63 = getelementptr inbounds nuw %class.IOGraphDialog, ptr %13, i32 0, i32 8
  %64 = load ptr, ptr %63, align 8
  %65 = load i32, ptr %6, align 4
  invoke void @_ZN13QCPItemTracer8setStyleENS_11TracerStyleE(ptr noundef align 8 dereferenceable_or_null(209) %64, i32 noundef %65)
          to label %66 unwind label %55

66:                                               ; preds = %62
  invoke void @_ZN4QPen8setColorERK6QColor(ptr noundef align 8 dereferenceable_or_null(8) %7, ptr noundef align 4 dereferenceable(14) %10)
          to label %67 unwind label %55

67:                                               ; preds = %66
  %68 = getelementptr inbounds nuw %class.IOGraphDialog, ptr %13, i32 0, i32 8
  %69 = load ptr, ptr %68, align 8
  invoke void @_ZN13QCPItemTracer6setPenERK4QPen(ptr noundef align 8 dereferenceable_or_null(209) %69, ptr noundef align 8 dereferenceable(8) %7)
          to label %70 unwind label %55

70:                                               ; preds = %67
  %71 = getelementptr inbounds nuw %class.IOGraphDialog, ptr %13, i32 0, i32 1
  %72 = load ptr, ptr %71, align 8
  %73 = getelementptr inbounds nuw %class.Ui_IOGraphDialog, ptr %72, i32 0, i32 26
  %74 = load ptr, ptr %73, align 8
  invoke void @_ZN11QCustomPlot6replotENS_15RefreshPriorityE(ptr noundef align 8 dereferenceable_or_null(513) %74, i32 noundef 2)
          to label %75 unwind label %55

75:                                               ; preds = %70
  call void @llvm.lifetime.end.p0(i64 16, ptr %10) #2
  call void @_ZN4QPenD1Ev(ptr noundef align 8 dereferenceable_or_null(8) %7) #2
  call void @llvm.lifetime.end.p0(i64 8, ptr %7) #2
  call void @llvm.lifetime.end.p0(i64 4, ptr %6) #2
  call void @_ZN4QPenD1Ev(ptr noundef align 8 dereferenceable_or_null(8) %5) #2
  call void @llvm.lifetime.end.p0(i64 8, ptr %5) #2
  br label %76

76:                                               ; preds = %75, %28, %20
  ret void

77:                                               ; preds = %55, %51
  call void @llvm.lifetime.end.p0(i64 8, ptr %7) #2
  call void @llvm.lifetime.end.p0(i64 4, ptr %6) #2
  call void @_ZN4QPenD1Ev(ptr noundef align 8 dereferenceable_or_null(8) %5) #2
  call void @llvm.lifetime.end.p0(i64 8, ptr %5) #2
  br label %78

78:                                               ; preds = %77
  %79 = load ptr, ptr %8, align 8
  %80 = load i32, ptr %9, align 4
  %81 = insertvalue { ptr, i32 } poison, ptr %79, 0
  %82 = insertvalue { ptr, i32 } %81, i32 %80, 1
  resume { ptr, i32 } %82
}