; Function Attrs: mustprogress null_pointer_is_valid sspstrong uwtable
define void @_ZN13IOGraphDialog17toggleTracerStyleEb(ptr noundef readonly align 8 captures(none) dereferenceable_or_null(384) %0, i1 noundef zeroext %1) local_unnamed_addr #2 align 2 personality ptr @__gxx_personality_v0 {
  %3 = alloca %class.QPen, align 8
  %4 = alloca %class.QPen, align 8
  %5 = alloca %class.QColor, align 8
  %6 = getelementptr inbounds nuw i8, ptr %0, i64 240
  %7 = load ptr, ptr %6, align 8
  %8 = getelementptr inbounds nuw i8, ptr %7, i64 16
  %9 = load i8, ptr %8, align 8, !range !12, !noundef !13
  %10 = trunc nuw i8 %9 to i1
  %brmerge = or i1 %1, %10
  br i1 %brmerge, label %11, label %47

11:                                               ; preds = %2
  %12 = getelementptr inbounds nuw i8, ptr %0, i64 144
  %13 = load ptr, ptr %12, align 8
  %14 = getelementptr inbounds nuw i8, ptr %13, i64 208
  %15 = load ptr, ptr %14, align 8
  %16 = tail call noundef ptr @_ZNK11QCustomPlot5graphEi(ptr noundef align 8 dereferenceable_or_null(513) %15, i32 noundef 0)
  %.not = icmp eq ptr %16, null
  br i1 %.not, label %47, label %17

17:                                               ; preds = %11
  call void @llvm.lifetime.start.p0(i64 8, ptr nonnull %3) #33
  %18 = load ptr, ptr %12, align 8
  %19 = getelementptr inbounds nuw i8, ptr %18, i64 208
  %20 = load ptr, ptr %19, align 8
  %21 = tail call noundef ptr @_ZNK11QCustomPlot5graphEi(ptr noundef align 8 dereferenceable_or_null(513) %20, i32 noundef 0)
  %22 = getelementptr inbounds nuw i8, ptr %21, i64 96
  call void @_ZN4QPenC1ERKS_(ptr noundef nonnull align 8 dereferenceable_or_null(8) %3, ptr noundef nonnull align 8 dereferenceable(8) %22) #33
  call void @llvm.lifetime.start.p0(i64 8, ptr nonnull %4) #33
  %23 = load ptr, ptr %6, align 8
  %24 = getelementptr inbounds nuw i8, ptr %23, i64 144
  call void @_ZN4QPenC1ERKS_(ptr noundef nonnull align 8 dereferenceable_or_null(8) %4, ptr noundef nonnull align 8 dereferenceable(8) %24) #33
  call void @llvm.lifetime.start.p0(i64 16, ptr nonnull %5) #33
  %25 = invoke { i64, i64 } @_ZNK4QPen5colorEv(ptr noundef nonnull align 8 dereferenceable_or_null(8) %3)
          to label %26 unwind label %33

26:                                               ; preds = %17
  %.fca.0.extract = extractvalue { i64, i64 } %25, 0
  %.fca.1.extract = extractvalue { i64, i64 } %25, 1
  store i64 %.fca.0.extract, ptr %5, align 8
  %.sroa.2.0..sroa_idx = getelementptr inbounds nuw i8, ptr %5, i64 8
  %.sroa.2.0.extract.trunc = trunc i64 %.fca.1.extract to i48
  store i48 %.sroa.2.0.extract.trunc, ptr %.sroa.2.0..sroa_idx, align 8
  br i1 %1, label %31, label %27

27:                                               ; preds = %26
  %28 = load ptr, ptr %6, align 8
  %29 = getelementptr inbounds nuw i8, ptr %28, i64 184
  %30 = load i32, ptr %29, align 8
  %.not5 = icmp eq i32 %30, 3
  br i1 %.not5, label %35, label %31

31:                                               ; preds = %27, %26
  invoke void @_ZN6QColor9setAlphaFEf(ptr noundef nonnull align 4 dereferenceable_or_null(14) %5, float noundef 1.000000e+00)
          to label %32 unwind label %33

32:                                               ; preds = %31
  invoke void @_ZN4QPen9setWidthFEd(ptr noundef nonnull align 8 dereferenceable_or_null(8) %4, double noundef 1.500000e+00)
          to label %37 unwind label %33

33:                                               ; preds = %42, %40, %39, %37, %36, %35, %32, %31, %17
  %34 = landingpad { ptr, i32 }
          cleanup
  call void @llvm.lifetime.end.p0(i64 16, ptr nonnull %5) #33
  call void @_ZN4QPenD1Ev(ptr noundef nonnull align 8 dereferenceable_or_null(8) %4) #33
  call void @llvm.lifetime.end.p0(i64 8, ptr nonnull %4) #33
  call void @_ZN4QPenD1Ev(ptr noundef nonnull align 8 dereferenceable_or_null(8) %3) #33
  call void @llvm.lifetime.end.p0(i64 8, ptr nonnull %3) #33
  resume { ptr, i32 } %34

35:                                               ; preds = %27
  invoke void @_ZN6QColor9setAlphaFEf(ptr noundef nonnull align 4 dereferenceable_or_null(14) %5, float noundef 5.000000e-01)
          to label %36 unwind label %33

36:                                               ; preds = %35
  invoke void @_ZN4QPen9setWidthFEd(ptr noundef nonnull align 8 dereferenceable_or_null(8) %4, double noundef 1.000000e+00)
          to label %37 unwind label %33

37:                                               ; preds = %36, %32
  %.0 = phi i32 [ 3, %32 ], [ 2, %36 ]
  %38 = load ptr, ptr %6, align 8
  invoke void @_ZN13QCPItemTracer8setStyleENS_11TracerStyleE(ptr noundef align 8 dereferenceable_or_null(209) %38, i32 noundef %.0)
          to label %39 unwind label %33

39:                                               ; preds = %37
  invoke void @_ZN4QPen8setColorERK6QColor(ptr noundef nonnull align 8 dereferenceable_or_null(8) %4, ptr noundef nonnull align 4 dereferenceable(14) %5)
          to label %40 unwind label %33

40:                                               ; preds = %39
  %41 = load ptr, ptr %6, align 8
  invoke void @_ZN13QCPItemTracer6setPenERK4QPen(ptr noundef align 8 dereferenceable_or_null(209) %41, ptr noundef nonnull align 8 dereferenceable(8) %4)
          to label %42 unwind label %33

42:                                               ; preds = %40
  %43 = load ptr, ptr %12, align 8
  %44 = getelementptr inbounds nuw i8, ptr %43, i64 208
  %45 = load ptr, ptr %44, align 8
  invoke void @_ZN11QCustomPlot6replotENS_15RefreshPriorityE(ptr noundef align 8 dereferenceable_or_null(513) %45, i32 noundef 2)
          to label %46 unwind label %33

46:                                               ; preds = %42
  call void @llvm.lifetime.end.p0(i64 16, ptr nonnull %5) #33
  call void @_ZN4QPenD1Ev(ptr noundef nonnull align 8 dereferenceable_or_null(8) %4) #33
  call void @llvm.lifetime.end.p0(i64 8, ptr nonnull %4) #33
  call void @_ZN4QPenD1Ev(ptr noundef nonnull align 8 dereferenceable_or_null(8) %3) #33
  call void @llvm.lifetime.end.p0(i64 8, ptr nonnull %3) #33
  br label %47

47:                                               ; preds = %2, %11, %46
  ret void
}